target datalayout = "e-m:e-p270:32:32-p271:32:32-p272:64:64-i64:64-i128:128-f80:128-n8:16:32:64-S128"
target triple = "x86_64-pc-linux-gnu"

%"class.vcg::Color4" = type { %"class.vcg::Point4" }
%"class.vcg::Point4" = type { [4 x i8] }
%class.EditPaintPlugin = type { %class.QObject, %class.EditTool, [16 x double], [16 x double], [4 x i32], ptr, ptr, ptr, ptr, ptr, %"class.std::vector.16", %"class.vcg::Point3", %"class.std::vector.21", %"class.std::vector.21", %"class.std::vector.21", %"class.std::vector.21", i32, i32, %"struct.EditPaintPlugin::InputEvent", %"struct.EditPaintPlugin::InputEvent", %"struct.EditPaintPlugin::Brush", %class.QHash, %"class.vcg::Color4", ptr, ptr, %class.QPoint, %class.QPoint, %class.QPoint, i32, i32, float, %class.QHash.26, %class.QPoint, %class.QHash.28 }
%class.QObject = type { ptr, %class.QScopedPointer }
%class.QScopedPointer = type { ptr }
%class.EditTool = type { %class.MeshLabPluginLogger }
%class.MeshLabPluginLogger = type { ptr, ptr }
%"class.std::vector.16" = type { %"struct.std::_Vector_base.17" }
%"struct.std::_Vector_base.17" = type { %"struct.std::_Vector_base<std::pair<CVertexO *, EditPaintPlugin::PickingData>, std::allocator<std::pair<CVertexO *, EditPaintPlugin::PickingData>>>::_Vector_impl" }
%"struct.std::_Vector_base<std::pair<CVertexO *, EditPaintPlugin::PickingData>, std::allocator<std::pair<CVertexO *, EditPaintPlugin::PickingData>>>::_Vector_impl" = type { %"struct.std::_Vector_base<std::pair<CVertexO *, EditPaintPlugin::PickingData>, std::allocator<std::pair<CVertexO *, EditPaintPlugin::PickingData>>>::_Vector_impl_data" }
%"struct.std::_Vector_base<std::pair<CVertexO *, EditPaintPlugin::PickingData>, std::allocator<std::pair<CVertexO *, EditPaintPlugin::PickingData>>>::_Vector_impl_data" = type { ptr, ptr, ptr }
%"class.vcg::Point3" = type { [3 x float] }
%"class.std::vector.21" = type { %"struct.std::_Vector_base.22" }
%"struct.std::_Vector_base.22" = type { %"struct.std::_Vector_base<QPointF, std::allocator<QPointF>>::_Vector_impl" }
%"struct.std::_Vector_base<QPointF, std::allocator<QPointF>>::_Vector_impl" = type { %"struct.std::_Vector_base<QPointF, std::allocator<QPointF>>::_Vector_impl_data" }
%"struct.std::_Vector_base<QPointF, std::allocator<QPointF>>::_Vector_impl_data" = type { ptr, ptr, ptr }
%"struct.EditPaintPlugin::InputEvent" = type <{ i32, i32, %class.QPoint, %class.QPoint, %class.QFlags, [4 x i8], double, i8, i8, [6 x i8] }>
%class.QFlags = type { i32 }
%"struct.EditPaintPlugin::Brush" = type { i32, i32, i32, float, i8, i8, i8 }
%class.QHash = type { %union.anon }
%union.anon = type { ptr }
%class.QHash.26 = type { %union.anon.27 }
%union.anon.27 = type { ptr }
%class.QPoint = type { i32, i32 }
%class.QHash.28 = type { %union.anon.29 }
%union.anon.29 = type { ptr }
%"struct.std::_Vector_base.201" = type { %"struct.std::_Vector_base<CFaceO *, std::allocator<CFaceO *>>::_Vector_impl" }
%"struct.std::_Vector_base<CFaceO *, std::allocator<CFaceO *>>::_Vector_impl" = type { %"struct.std::_Vector_base<CFaceO *, std::allocator<CFaceO *>>::_Vector_impl_data" }
%"struct.std::_Vector_base<CFaceO *, std::allocator<CFaceO *>>::_Vector_impl_data" = type { ptr, ptr, ptr }

@.str.8 = private unnamed_addr constant [8 x i8] c"2undo()\00", align 1
@.str.9 = private unnamed_addr constant [10 x i8] c"1update()\00", align 1
@.str.10 = private unnamed_addr constant [8 x i8] c"2redo()\00", align 1

; Function Attrs: mustprogress nounwind uwtable
define linkonce_odr void @_ZNSt15__new_allocatorIP6CFaceOED2Ev(ptr noundef nonnull align 1 dereferenceable(1) %0) unnamed_addr #4 comdat align 2 {
  %2 = alloca ptr, align 8
  store ptr %0, ptr %2, align 8
  ret void
}

; Function Attrs: mustprogress nounwind uwtable
define linkonce_odr void @_ZNSt15__new_allocatorIP6CFaceOE10deallocateEPS1_m(ptr noundef nonnull align 1 dereferenceable(1) %0, ptr noundef %1, i64 noundef %2) #4 comdat align 2 {
  %4 = alloca ptr, align 8
  %5 = alloca ptr, align 8
  %6 = alloca i64, align 8
  store ptr %0, ptr %4, align 8
  store ptr %1, ptr %5, align 8
  store i64 %2, ptr %6, align 8
  %7 = load ptr, ptr %5, align 8
  call void @_ZdlPv(ptr noundef %7) #23
  ret void
}

; Function Attrs: mustprogress nounwind uwtable
define linkonce_odr void @_ZNSaIP6CFaceOED2Ev(ptr noundef nonnull align 1 dereferenceable(1) %0) unnamed_addr #4 comdat align 2 {
  %2 = alloca ptr, align 8
  store ptr %0, ptr %2, align 8
  %3 = load ptr, ptr %2, align 8
  call void @_ZNSt15__new_allocatorIP6CFaceOED2Ev(ptr noundef nonnull align 1 dereferenceable(1) %3) #3
  ret void
}

; Function Attrs: mustprogress uwtable
define linkonce_odr void @_ZNSt16allocator_traitsISaIP6CFaceOEE10deallocateERS2_PS1_m(ptr noundef nonnull align 1 dereferenceable(1) %0, ptr noundef %1, i64 noundef %2) #5 comdat align 2 {
  %4 = alloca ptr, align 8
  %5 = alloca ptr, align 8
  %6 = alloca i64, align 8
  store ptr %0, ptr %4, align 8
  store ptr %1, ptr %5, align 8
  store i64 %2, ptr %6, align 8
  %7 = load ptr, ptr %4, align 8
  %8 = load ptr, ptr %5, align 8
  %9 = load i64, ptr %6, align 8
  call void @_ZNSt15__new_allocatorIP6CFaceOE10deallocateEPS1_m(ptr noundef nonnull align 1 dereferenceable(1) %7, ptr noundef %8, i64 noundef %9)
  ret void
}

; Function Attrs: mustprogress nounwind uwtable
define linkonce_odr void @_ZNSt12_Destroy_auxILb1EE9__destroyIPP6CFaceOEEvT_S5_(ptr noundef %0, ptr noundef %1) #4 comdat align 2 {
  %3 = alloca ptr, align 8
  %4 = alloca ptr, align 8
  store ptr %0, ptr %3, align 8
  store ptr %1, ptr %4, align 8
  ret void
}

; Function Attrs: mustprogress nounwind uwtable
define linkonce_odr void @_ZNSt12_Vector_baseIP6CFaceOSaIS1_EE12_Vector_implD2Ev(ptr noundef nonnull align 8 dereferenceable(24) %0) unnamed_addr #4 comdat align 2 {
  %2 = alloca ptr, align 8
  store ptr %0, ptr %2, align 8
  %3 = load ptr, ptr %2, align 8
  call void @_ZNSaIP6CFaceOED2Ev(ptr noundef nonnull align 1 dereferenceable(1) %3) #3
  ret void
}

; Function Attrs: mustprogress uwtable
define linkonce_odr void @_ZNSt12_Vector_baseIP6CFaceOSaIS1_EE13_M_deallocateEPS1_m(ptr noundef nonnull align 8 dereferenceable(24) %0, ptr noundef %1, i64 noundef %2) #5 comdat align 2 {
  %4 = alloca ptr, align 8
  %5 = alloca ptr, align 8
  %6 = alloca i64, align 8
  store ptr %0, ptr %4, align 8
  store ptr %1, ptr %5, align 8
  store i64 %2, ptr %6, align 8
  %7 = load ptr, ptr %4, align 8
  %8 = load ptr, ptr %5, align 8
  %9 = icmp ne ptr %8, null
  br i1 %9, label %10, label %14

10:                                               ; preds = %3
  %11 = getelementptr inbounds %"struct.std::_Vector_base.201", ptr %7, i32 0, i32 0
  %12 = load ptr, ptr %5, align 8
  %13 = load i64, ptr %6, align 8
  call void @_ZNSt16allocator_traitsISaIP6CFaceOEE10deallocateERS2_PS1_m(ptr noundef nonnull align 1 dereferenceable(1) %11, ptr noundef %12, i64 noundef %13)
  br label %14

14:                                               ; preds = %10, %3
  ret void
}

; Function Attrs: mustprogress uwtable
define linkonce_odr void @_ZSt8_DestroyIPP6CFaceOEvT_S3_(ptr noundef %0, ptr noundef %1) #5 comdat {
  %3 = alloca ptr, align 8
  %4 = alloca ptr, align 8
  store ptr %0, ptr %3, align 8
  store ptr %1, ptr %4, align 8
  %5 = load ptr, ptr %3, align 8
  %6 = load ptr, ptr %4, align 8
  call void @_ZNSt12_Destroy_auxILb1EE9__destroyIPP6CFaceOEEvT_S5_(ptr noundef %5, ptr noundef %6)
  ret void
}

; Function Attrs: noreturn nounwind uwtable
define linkonce_odr hidden void @__clang_call_terminate(ptr noundef %0) #9 comdat {
  %2 = call ptr @__cxa_begin_catch(ptr %0) #3
  call void @_ZSt9terminatev() #20
  unreachable
}

; Function Attrs: mustprogress nounwind uwtable
define linkonce_odr void @_ZNSt12_Vector_baseIP6CFaceOSaIS1_EED2Ev(ptr noundef nonnull align 8 dereferenceable(24) %0) unnamed_addr #4 comdat align 2 personality ptr @__gxx_personality_v0 {
  %2 = alloca ptr, align 8
  store ptr %0, ptr %2, align 8
  %3 = load ptr, ptr %2, align 8
  %4 = getelementptr inbounds %"struct.std::_Vector_base.201", ptr %3, i32 0, i32 0
  %5 = getelementptr inbounds %"struct.std::_Vector_base<CFaceO *, std::allocator<CFaceO *>>::_Vector_impl_data", ptr %4, i32 0, i32 0
  %6 = load ptr, ptr %5, align 8
  %7 = getelementptr inbounds %"struct.std::_Vector_base.201", ptr %3, i32 0, i32 0
  %8 = getelementptr inbounds %"struct.std::_Vector_base<CFaceO *, std::allocator<CFaceO *>>::_Vector_impl_data", ptr %7, i32 0, i32 2
  %9 = load ptr, ptr %8, align 8
  %10 = getelementptr inbounds %"struct.std::_Vector_base.201", ptr %3, i32 0, i32 0
  %11 = getelementptr inbounds %"struct.std::_Vector_base<CFaceO *, std::allocator<CFaceO *>>::_Vector_impl_data", ptr %10, i32 0, i32 0
  %12 = load ptr, ptr %11, align 8
  %13 = ptrtoint ptr %9 to i64
  %14 = ptrtoint ptr %12 to i64
  %15 = sub i64 %13, %14
  %16 = sdiv exact i64 %15, 8
  invoke void @_ZNSt12_Vector_baseIP6CFaceOSaIS1_EE13_M_deallocateEPS1_m(ptr noundef nonnull align 8 dereferenceable(24) %3, ptr noundef %6, i64 noundef %16)
          to label %17 unwind label %19

17:                                               ; preds = %1
  %18 = getelementptr inbounds %"struct.std::_Vector_base.201", ptr %3, i32 0, i32 0
  call void @_ZNSt12_Vector_baseIP6CFaceOSaIS1_EE12_Vector_implD2Ev(ptr noundef nonnull align 8 dereferenceable(24) %18) #3
  ret void

19:                                               ; preds = %1
  %20 = landingpad { ptr, i32 }
          catch ptr null
  %21 = extractvalue { ptr, i32 } %20, 0
  call void @__clang_call_terminate(ptr %21) #20
  unreachable
}

; Function Attrs: mustprogress uwtable
define linkonce_odr void @_ZSt8_DestroyIPP6CFaceOS1_EvT_S3_RSaIT0_E(ptr noundef %0, ptr noundef %1, ptr noundef nonnull align 1 dereferenceable(1) %2) #5 comdat {
  %4 = alloca ptr, align 8
  %5 = alloca ptr, align 8
  %6 = alloca ptr, align 8
  store ptr %0, ptr %4, align 8
  store ptr %1, ptr %5, align 8
  store ptr %2, ptr %6, align 8
  %7 = load ptr, ptr %4, align 8
  %8 = load ptr, ptr %5, align 8
  call void @_ZSt8_DestroyIPP6CFaceOEvT_S3_(ptr noundef %7, ptr noundef %8)
  ret void
}

; Function Attrs: mustprogress nounwind uwtable
define linkonce_odr noundef nonnull align 1 dereferenceable(1) ptr @_ZNSt12_Vector_baseIP6CFaceOSaIS1_EE19_M_get_Tp_allocatorEv(ptr noundef nonnull align 8 dereferenceable(24) %0) #4 comdat align 2 {
  %2 = alloca ptr, align 8
  store ptr %0, ptr %2, align 8
  %3 = load ptr, ptr %2, align 8
  %4 = getelementptr inbounds %"struct.std::_Vector_base.201", ptr %3, i32 0, i32 0
  ret ptr %4
}

; Function Attrs: mustprogress nounwind uwtable
define linkonce_odr void @_ZNSt6vectorIP6CFaceOSaIS1_EED2Ev(ptr noundef nonnull align 8 dereferenceable(24) %0) unnamed_addr #4 comdat align 2 personality ptr @__gxx_personality_v0 {
  %2 = alloca ptr, align 8
  store ptr %0, ptr %2, align 8
  %3 = load ptr, ptr %2, align 8
  %4 = getelementptr inbounds %"struct.std::_Vector_base.201", ptr %3, i32 0, i32 0
  %5 = getelementptr inbounds %"struct.std::_Vector_base<CFaceO *, std::allocator<CFaceO *>>::_Vector_impl_data", ptr %4, i32 0, i32 0
  %6 = load ptr, ptr %5, align 8
  %7 = getelementptr inbounds %"struct.std::_Vector_base.201", ptr %3, i32 0, i32 0
  %8 = getelementptr inbounds %"struct.std::_Vector_base<CFaceO *, std::allocator<CFaceO *>>::_Vector_impl_data", ptr %7, i32 0, i32 1
  %9 = load ptr, ptr %8, align 8
  %10 = call noundef nonnull align 1 dereferenceable(1) ptr @_ZNSt12_Vector_baseIP6CFaceOSaIS1_EE19_M_get_Tp_allocatorEv(ptr noundef nonnull align 8 dereferenceable(24) %3) #3
  invoke void @_ZSt8_DestroyIPP6CFaceOS1_EvT_S3_RSaIT0_E(ptr noundef %6, ptr noundef %9, ptr noundef nonnull align 1 dereferenceable(1) %10)
          to label %11 unwind label %12

11:                                               ; preds = %1
  call void @_ZNSt12_Vector_baseIP6CFaceOSaIS1_EED2Ev(ptr noundef nonnull align 8 dereferenceable(24) %3) #3
  ret void

12:                                               ; preds = %1
  %13 = landingpad { ptr, i32 }
          catch ptr null
  %14 = extractvalue { ptr, i32 } %13, 0
  call void @__clang_call_terminate(ptr %14) #20
  unreachable
}

; Function Attrs: mustprogress uwtable
define linkonce_odr void @_ZN7QWidget16setMouseTrackingEb(ptr noundef nonnull align 8 dereferenceable(48) %0, i1 noundef zeroext %1) #5 comdat align 2 {
  %3 = alloca ptr, align 8
  %4 = alloca i8, align 1
  store ptr %0, ptr %3, align 8
  %5 = zext i1 %1 to i8
  store i8 %5, ptr %4, align 1
  %6 = load ptr, ptr %3, align 8
  %7 = load i8, ptr %4, align 1
  %8 = trunc i8 %7 to i1
  call void @_ZN7QWidget12setAttributeEN2Qt15WidgetAttributeEb(ptr noundef nonnull align 8 dereferenceable(48) %6, i32 noundef 2, i1 noundef zeroext %8)
  ret void
}

; Function Attrs: mustprogress uwtable
define void @_ZN15EditPaintPlugin7endEditER9MeshModelP6GLAreaP26MLSceneGLSharedDataContext(ptr noundef nonnull align 8 dereferenceable(704) %0, ptr noundef nonnull align 8 dereferenceable(1288) %1, ptr noundef %2, ptr noundef %3) unnamed_addr #5 align 2 {
  %5 = alloca ptr, align 8
  %6 = alloca ptr, align 8
  %7 = alloca ptr, align 8
  %8 = alloca ptr, align 8
  store ptr %0, ptr %5, align 8
  store ptr %1, ptr %6, align 8
  store ptr %2, ptr %7, align 8
  store ptr %3, ptr %8, align 8
  %9 = load ptr, ptr %5, align 8
  %10 = getelementptr inbounds %class.EditPaintPlugin, ptr %9, i32 0, i32 8
  %11 = load ptr, ptr %10, align 8
  %12 = call noundef zeroext i1 @_ZN7QObject10disconnectEPKS_PKcS1_S3_(ptr noundef %11, ptr noundef @.str.8, ptr noundef %9, ptr noundef @.str.9)
  %13 = getelementptr inbounds %class.EditPaintPlugin, ptr %9, i32 0, i32 8
  %14 = load ptr, ptr %13, align 8
  %15 = call noundef zeroext i1 @_ZN7QObject10disconnectEPKS_PKcS1_S3_(ptr noundef %14, ptr noundef @.str.10, ptr noundef %9, ptr noundef @.str.9)
  %16 = getelementptr inbounds %class.EditPaintPlugin, ptr %9, i32 0, i32 5
  %17 = load ptr, ptr %16, align 8
  call void @_ZN7QWidget16setMouseTrackingEb(ptr noundef nonnull align 8 dereferenceable(48) %17, i1 noundef zeroext false)
  %18 = getelementptr inbounds %class.EditPaintPlugin, ptr %9, i32 0, i32 6
  %19 = load ptr, ptr %18, align 8
  %20 = icmp ne ptr %19, null
  br i1 %20, label %21, label %28

21:                                               ; preds = %4
  %22 = getelementptr inbounds %class.EditPaintPlugin, ptr %9, i32 0, i32 6
  %23 = load ptr, ptr %22, align 8
  %24 = icmp eq ptr %23, null
  br i1 %24, label %26, label %25

25:                                               ; preds = %21
  call void @_ZdlPv(ptr noundef %23) #23
  br label %26

26:                                               ; preds = %25, %21
  %27 = getelementptr inbounds %class.EditPaintPlugin, ptr %9, i32 0, i32 6
  store ptr null, ptr %27, align 8
  br label %28

28:                                               ; preds = %26, %4
  %29 = getelementptr inbounds %class.EditPaintPlugin, ptr %9, i32 0, i32 8
  %30 = load ptr, ptr %29, align 8
  %31 = icmp eq ptr %30, null
  br i1 %31, label %36, label %32

32:                                               ; preds = %28
  %33 = load ptr, ptr %30, align 8
  %34 = getelementptr inbounds ptr, ptr %33, i64 4
  %35 = load ptr, ptr %34, align 8
  call void %35(ptr noundef nonnull align 8 dereferenceable(844) %30) #3
  br label %36

36:                                               ; preds = %32, %28
  %37 = getelementptr inbounds %class.EditPaintPlugin, ptr %9, i32 0, i32 9
  %38 = load ptr, ptr %37, align 8
  %39 = icmp eq ptr %38, null
  br i1 %39, label %41, label %40

40:                                               ; preds = %36
  call void @_ZNSt6vectorIP6CFaceOSaIS1_EED2Ev(ptr noundef nonnull align 8 dereferenceable(24) %38) #3
  call void @_ZdlPv(ptr noundef %38) #23
  br label %41

41:                                               ; preds = %40, %36
  %42 = getelementptr inbounds %class.EditPaintPlugin, ptr %9, i32 0, i32 7
  %43 = load ptr, ptr %42, align 8
  %44 = icmp eq ptr %43, null
  br i1 %44, label %49, label %45

45:                                               ; preds = %41
  %46 = load ptr, ptr %43, align 8
  %47 = getelementptr inbounds ptr, ptr %46, i64 4
  %48 = load ptr, ptr %47, align 8
  call void %48(ptr noundef nonnull align 8 dereferenceable(48) %43) #3
  br label %49

49:                                               ; preds = %45, %41
  ret void
}