; Function Attrs: mustprogress uwtable
define void @_ZN15EditPaintPlugin7endEditER9MeshModelP6GLAreaP26MLSceneGLSharedDataContext(ptr noundef nonnull align 8 dereferenceable(704) %0, ptr nocapture nonnull readnone align 8 %1, ptr nocapture readnone %2, ptr nocapture readnone %3) unnamed_addr #9 align 2 personality ptr @__gxx_personality_v0 {
  %5 = getelementptr inbounds i8, ptr %0, i64 328
  %6 = load ptr, ptr %5, align 8
  %7 = tail call noundef zeroext i1 @_ZN7QObject10disconnectEPKS_PKcS1_S3_(ptr noundef %6, ptr noundef nonnull @.str.8, ptr noundef nonnull %0, ptr noundef nonnull @.str.9)
  %8 = load ptr, ptr %5, align 8
  %9 = tail call noundef zeroext i1 @_ZN7QObject10disconnectEPKS_PKcS1_S3_(ptr noundef %8, ptr noundef nonnull @.str.10, ptr noundef nonnull %0, ptr noundef nonnull @.str.9)
  %10 = getelementptr inbounds i8, ptr %0, i64 304
  %11 = load ptr, ptr %10, align 8
  tail call void @_ZN7QWidget12setAttributeEN2Qt15WidgetAttributeEb(ptr noundef nonnull align 8 dereferenceable(48) %11, i32 noundef 2, i1 noundef zeroext false)
  %12 = getelementptr inbounds i8, ptr %0, i64 312
  %13 = load ptr, ptr %12, align 8
  %.not = icmp eq ptr %13, null
  br i1 %.not, label %15, label %14

14:                                               ; preds = %4
  tail call void @_ZdlPv(ptr noundef nonnull %13) #24
  store ptr null, ptr %12, align 8
  br label %15

15:                                               ; preds = %14, %4
  %16 = load ptr, ptr %5, align 8
  %17 = icmp eq ptr %16, null
  br i1 %17, label %22, label %18

18:                                               ; preds = %15
  %19 = load ptr, ptr %16, align 8
  %20 = getelementptr inbounds i8, ptr %19, i64 32
  %21 = load ptr, ptr %20, align 8
  tail call void %21(ptr noundef nonnull align 8 dereferenceable(844) %16) #25
  br label %22

22:                                               ; preds = %18, %15
  %23 = getelementptr inbounds i8, ptr %0, i64 336
  %24 = load ptr, ptr %23, align 8
  %25 = icmp eq ptr %24, null
  br i1 %25, label %29, label %26

26:                                               ; preds = %22
  %27 = load ptr, ptr %24, align 8
  %.not.i.i.i = icmp eq ptr %27, null
  br i1 %.not.i.i.i, label %_ZNSt6vectorIP6CFaceOSaIS1_EED2Ev.exit, label %28

28:                                               ; preds = %26
  tail call void @_ZdlPv(ptr noundef nonnull %27) #24
  br label %_ZNSt6vectorIP6CFaceOSaIS1_EED2Ev.exit

_ZNSt6vectorIP6CFaceOSaIS1_EED2Ev.exit:           ; preds = %26, %28
  tail call void @_ZdlPv(ptr noundef nonnull %24) #24
  br label %29

29:                                               ; preds = %_ZNSt6vectorIP6CFaceOSaIS1_EED2Ev.exit, %22
  %30 = getelementptr inbounds i8, ptr %0, i64 320
  %31 = load ptr, ptr %30, align 8
  %32 = icmp eq ptr %31, null
  br i1 %32, label %37, label %33

33:                                               ; preds = %29
  %34 = load ptr, ptr %31, align 8
  %35 = getelementptr inbounds i8, ptr %34, i64 32
  %36 = load ptr, ptr %35, align 8
  tail call void %36(ptr noundef nonnull align 8 dereferenceable(48) %31) #25
  br label %37

37:                                               ; preds = %33, %29
  ret void
}